; Function Attrs: nounwind uwtable
define dso_local void @zend_fiber_suspend(ptr noundef captures(none) initializes((176, 184), (288, 296)) %0, ptr noundef readonly captures(address_is_null) %1, ptr noundef writeonly captures(address_is_null) %2) local_unnamed_addr #7 {
  %4 = alloca %struct._zend_fiber_transfer, align 8
  %5 = getelementptr inbounds nuw i8, ptr %0, i64 296
  %6 = load ptr, ptr %5, align 8, !tbaa !98
  %7 = getelementptr inbounds nuw i8, ptr %6, i64 48
  store ptr null, ptr %7, align 8, !tbaa !101
  call void @llvm.lifetime.start.p0(i64 32, ptr nonnull %4) #22
  %8 = getelementptr inbounds nuw i8, ptr %0, i64 56
  %9 = load i8, ptr %8, align 8, !tbaa !104, !noalias !120
  %10 = and i8 %9, 4
  %.not.i4 = icmp eq i8 %10, 0
  tail call void @llvm.assume(i1 %.not.i4)
  %11 = getelementptr inbounds nuw i8, ptr %0, i64 104
  %12 = load i32, ptr %11, align 8, !tbaa !74, !noalias !120
  %13 = add i32 %12, -1
  %spec.select.i = icmp ult i32 %13, 2
  tail call void @llvm.assume(i1 %spec.select.i)
  %14 = getelementptr inbounds nuw i8, ptr %0, i64 168
  %15 = load ptr, ptr %14, align 8, !tbaa !88, !noalias !120, !nonnull !61, !noundef !61
  %16 = load ptr, ptr getelementptr inbounds nuw (i8, ptr @executor_globals, i64 1768), align 8, !tbaa !60, !noalias !120
  %17 = getelementptr inbounds nuw i8, ptr %0, i64 176
  store ptr %16, ptr %17, align 8, !tbaa !83, !noalias !120
  store ptr null, ptr %14, align 8, !tbaa !88, !noalias !120
  %18 = load ptr, ptr getelementptr inbounds nuw (i8, ptr @executor_globals, i64 512), align 8, !tbaa !66, !noalias !120
  %19 = getelementptr inbounds nuw i8, ptr %0, i64 288
  store ptr %18, ptr %19, align 8, !tbaa !87, !noalias !120
  tail call void @llvm.experimental.noalias.scope.decl(metadata !123)
  store ptr %15, ptr %4, align 8, !tbaa !57, !alias.scope !123
  %20 = getelementptr inbounds nuw i8, ptr %4, i64 8
  %21 = getelementptr inbounds nuw i8, ptr %4, i64 24
  %.not.i5 = icmp eq ptr %1, null
  call void @llvm.memset.p0.i64(ptr noundef nonnull align 8 dereferenceable(24) %20, i8 0, i64 24, i1 false)
  br i1 %.not.i5, label %31, label %22

22:                                               ; preds = %3
  %23 = load ptr, ptr %1, align 8, !tbaa !56, !noalias !123
  %24 = getelementptr inbounds nuw i8, ptr %1, i64 8
  %25 = load i32, ptr %24, align 8, !tbaa !56, !noalias !123
  store ptr %23, ptr %20, align 8, !tbaa !56, !alias.scope !123
  %26 = getelementptr inbounds nuw i8, ptr %4, i64 16
  store i32 %25, ptr %26, align 8, !tbaa !56, !alias.scope !123
  %27 = and i32 %25, 65280
  %.not11.i6 = icmp eq i32 %27, 0
  br i1 %.not11.i6, label %33, label %28

28:                                               ; preds = %22
  %29 = load i32, ptr %23, align 4, !tbaa !105, !noalias !123
  %30 = add i32 %29, 1
  store i32 %30, ptr %23, align 4, !tbaa !105, !noalias !123
  br label %33

31:                                               ; preds = %3
  %32 = getelementptr inbounds nuw i8, ptr %4, i64 16
  store i32 1, ptr %32, align 8, !tbaa !56, !alias.scope !123
  br label %33

33:                                               ; preds = %31, %28, %22
  call void @zend_fiber_switch_context(ptr noundef nonnull align 8 %4)
  %34 = load i8, ptr %21, align 8, !tbaa !92, !alias.scope !123
  %35 = and i8 %34, 2
  %.not12.i = icmp eq i8 %35, 0
  br i1 %.not12.i, label %zend_fiber_switch_to.exit, label %36, !prof !73

36:                                               ; preds = %33
  store ptr null, ptr getelementptr inbounds nuw (i8, ptr @executor_globals, i64 1776), align 8, !tbaa !70, !noalias !123
  call void @_zend_bailout(ptr noundef nonnull @.str.25, i32 noundef 669) #24
  unreachable

zend_fiber_switch_to.exit:                        ; preds = %33
  %37 = and i8 %34, 1
  %.not.i = icmp eq i8 %37, 0
  br i1 %.not.i, label %42, label %38

38:                                               ; preds = %zend_fiber_switch_to.exit
  %39 = load ptr, ptr %20, align 8, !tbaa !56
  call void @zend_throw_exception_internal(ptr noundef %39) #22
  %40 = load ptr, ptr getelementptr inbounds nuw (i8, ptr @executor_globals, i64 960), align 8, !tbaa !93
  %41 = icmp ne ptr %40, null
  call void @llvm.assume(i1 %41)
  br label %zend_fiber_delegate_transfer_result.exit

42:                                               ; preds = %zend_fiber_switch_to.exit
  %.not11.i = icmp eq ptr %2, null
  br i1 %.not11.i, label %48, label %43

43:                                               ; preds = %42
  %44 = load ptr, ptr %20, align 8, !tbaa !56
  %45 = getelementptr inbounds nuw i8, ptr %4, i64 16
  %46 = load i32, ptr %45, align 8, !tbaa !56
  store ptr %44, ptr %2, align 8, !tbaa !56
  %47 = getelementptr inbounds nuw i8, ptr %2, i64 8
  store i32 %46, ptr %47, align 8, !tbaa !56
  br label %zend_fiber_delegate_transfer_result.exit

48:                                               ; preds = %42
  call void @zval_ptr_dtor(ptr noundef nonnull %20) #22
  br label %zend_fiber_delegate_transfer_result.exit

zend_fiber_delegate_transfer_result.exit:         ; preds = %38, %43, %48
  call void @llvm.lifetime.end.p0(i64 32, ptr nonnull %4) #22
  ret void
}